; Function Attrs: mustprogress nofree norecurse nosync nounwind willreturn memory(argmem: write) uwtable
define noundef nonnull align 8 dereferenceable(225) ptr @_ZN8QuantLib7MakeOIS26withOvernightLegEndOfMonthEb(ptr noundef nonnull returned writeonly align 8 dereferenceable(225) %this, i1 noundef zeroext %flag) local_unnamed_addr #13 align 2 {
entry:
  %storedv = zext i1 %flag to i8
  %overnightEndOfMonth_ = getelementptr inbounds nuw i8, ptr %this, i64 153
  store i8 %storedv, ptr %overnightEndOfMonth_, align 1, !tbaa !81
  %isDefaultEOM_ = getelementptr inbounds nuw i8, ptr %this, i64 154
  store i8 0, ptr %isDefaultEOM_, align 2, !tbaa !66
  ret ptr %this
}